target datalayout = "e-m:e-p270:32:32-p271:32:32-p272:64:64-i64:64-i128:128-f80:128-n8:16:32:64-S128"
target triple = "x86_64-pc-linux-gnu"

%struct.stbvox_mesh_maker = type { %struct.stbvox_input_description, i32, i32, i32, i32, i32, i32, i32, i32, i32, i32, i32, i32, i32, i32, [6 x [4 x i32]], [6 x [4 x i32]], i32, i32, i32, i32, [2 x [3 x ptr]], [2 x [3 x ptr]], [2 x [3 x ptr]], [2 x [3 x i32]], [2 x [3 x i32]], [2 x [3 x i32]], i32, [128 x [2 x float]] }
%struct.stbvox_input_description = type { i8, ptr, ptr, ptr, ptr, ptr, ptr, ptr, ptr, ptr, ptr, ptr, ptr, ptr, ptr, ptr, ptr, ptr, ptr, ptr, ptr, ptr, ptr, ptr, ptr, ptr, ptr, ptr, ptr, ptr, ptr, ptr, ptr, ptr, ptr, ptr, ptr, ptr, ptr, ptr, ptr, ptr, ptr }

; Function Attrs: nounwind uwtable
define void @stbvox_set_input_range(ptr noundef %0, i32 noundef %1, i32 noundef %2, i32 noundef %3, i32 noundef %4, i32 noundef %5, i32 noundef %6) #0 {
  %8 = alloca ptr, align 8
  %9 = alloca i32, align 4
  %10 = alloca i32, align 4
  %11 = alloca i32, align 4
  %12 = alloca i32, align 4
  %13 = alloca i32, align 4
  %14 = alloca i32, align 4
  store ptr %0, ptr %8, align 8, !tbaa !20
  store i32 %1, ptr %9, align 4, !tbaa !3
  store i32 %2, ptr %10, align 4, !tbaa !3
  store i32 %3, ptr %11, align 4, !tbaa !3
  store i32 %4, ptr %12, align 4, !tbaa !3
  store i32 %5, ptr %13, align 4, !tbaa !3
  store i32 %6, ptr %14, align 4, !tbaa !3
  %15 = load i32, ptr %9, align 4, !tbaa !3
  %16 = load ptr, ptr %8, align 8, !tbaa !20
  %17 = getelementptr inbounds nuw %struct.stbvox_mesh_maker, ptr %16, i32 0, i32 4
  store i32 %15, ptr %17, align 4, !tbaa !106
  %18 = load i32, ptr %10, align 4, !tbaa !3
  %19 = load ptr, ptr %8, align 8, !tbaa !20
  %20 = getelementptr inbounds nuw %struct.stbvox_mesh_maker, ptr %19, i32 0, i32 5
  store i32 %18, ptr %20, align 8, !tbaa !108
  %21 = load i32, ptr %11, align 4, !tbaa !3
  %22 = load ptr, ptr %8, align 8, !tbaa !20
  %23 = getelementptr inbounds nuw %struct.stbvox_mesh_maker, ptr %22, i32 0, i32 6
  store i32 %21, ptr %23, align 4, !tbaa !109
  %24 = load i32, ptr %12, align 4, !tbaa !3
  %25 = load ptr, ptr %8, align 8, !tbaa !20
  %26 = getelementptr inbounds nuw %struct.stbvox_mesh_maker, ptr %25, i32 0, i32 7
  store i32 %24, ptr %26, align 8, !tbaa !112
  %27 = load i32, ptr %13, align 4, !tbaa !3
  %28 = load ptr, ptr %8, align 8, !tbaa !20
  %29 = getelementptr inbounds nuw %struct.stbvox_mesh_maker, ptr %28, i32 0, i32 8
  store i32 %27, ptr %29, align 4, !tbaa !110
  %30 = load i32, ptr %14, align 4, !tbaa !3
  %31 = load ptr, ptr %8, align 8, !tbaa !20
  %32 = getelementptr inbounds nuw %struct.stbvox_mesh_maker, ptr %31, i32 0, i32 9
  store i32 %30, ptr %32, align 8, !tbaa !97
  %33 = load i32, ptr %9, align 4, !tbaa !3
  %34 = load ptr, ptr %8, align 8, !tbaa !20
  %35 = getelementptr inbounds nuw %struct.stbvox_mesh_maker, ptr %34, i32 0, i32 1
  store i32 %33, ptr %35, align 8, !tbaa !105
  %36 = load i32, ptr %10, align 4, !tbaa !3
  %37 = load ptr, ptr %8, align 8, !tbaa !20
  %38 = getelementptr inbounds nuw %struct.stbvox_mesh_maker, ptr %37, i32 0, i32 2
  store i32 %36, ptr %38, align 4, !tbaa !107
  %39 = load i32, ptr %11, align 4, !tbaa !3
  %40 = load ptr, ptr %8, align 8, !tbaa !20
  %41 = getelementptr inbounds nuw %struct.stbvox_mesh_maker, ptr %40, i32 0, i32 3
  store i32 %39, ptr %41, align 8, !tbaa !98
  ret void
}