; Function Attrs: mustprogress nofree norecurse nosync nounwind willreturn memory(argmem: write) uwtable
define void @stbvox_set_input_range(ptr noundef writeonly captures(none) initializes((344, 380)) %0, i32 noundef %1, i32 noundef %2, i32 noundef %3, i32 noundef %4, i32 noundef %5, i32 noundef %6) local_unnamed_addr #13 {
  %8 = getelementptr inbounds nuw i8, ptr %0, i64 356
  store i32 %1, ptr %8, align 4, !tbaa !89
  %9 = getelementptr inbounds nuw i8, ptr %0, i64 360
  store i32 %2, ptr %9, align 8, !tbaa !91
  %10 = getelementptr inbounds nuw i8, ptr %0, i64 364
  store i32 %3, ptr %10, align 4, !tbaa !92
  %11 = getelementptr inbounds nuw i8, ptr %0, i64 368
  store i32 %4, ptr %11, align 8, !tbaa !95
  %12 = getelementptr inbounds nuw i8, ptr %0, i64 372
  store i32 %5, ptr %12, align 4, !tbaa !93
  %13 = getelementptr inbounds nuw i8, ptr %0, i64 376
  store i32 %6, ptr %13, align 8, !tbaa !81
  %14 = getelementptr inbounds nuw i8, ptr %0, i64 344
  store i32 %1, ptr %14, align 8, !tbaa !88
  %15 = getelementptr inbounds nuw i8, ptr %0, i64 348
  store i32 %2, ptr %15, align 4, !tbaa !90
  %16 = getelementptr inbounds nuw i8, ptr %0, i64 352
  store i32 %3, ptr %16, align 8, !tbaa !85
  ret void
}